target datalayout = "e-m:e-p270:32:32-p271:32:32-p272:64:64-i64:64-i128:128-f80:128-n8:16:32:64-S128"
target triple = "x86_64-pc-linux-gnu"

%"class.gmx::FileIOXdrSerializer" = type { %"class.gmx::ISerializer", ptr }
%"class.gmx::ISerializer" = type { ptr }
%class.anon.8 = type { i8 }

@.str.2 = private unnamed_addr constant [127 x i8] c"generated/home/dtcxzyw/WorkSpace/Projects/compilers/llvm-opt-benchmark/bench/gromacs/gromacs/src/gromacs/fileio/gmxfio_xdr.cpp\00", align 1
@.str.30 = private unnamed_addr constant [4 x i8] c"fio\00", align 1
@.str.31 = private unnamed_addr constant [26 x i8] c"Need valid file io handle\00", align 1
@"__PRETTY_FUNCTION__._ZZN3gmx19FileIOXdrSerializerC1EP8t_fileioENK3$_0clEv" = private unnamed_addr constant [102 x i8] c"auto gmx::FileIOXdrSerializer::FileIOXdrSerializer(t_fileio *)::(anonymous class)::operator()() const\00", align 1

; Function Attrs: mustprogress nounwind uwtable
define linkonce_odr void @_ZN3gmx11ISerializerD2Ev(ptr noundef nonnull align 8 dereferenceable(8) %0) unnamed_addr #0 comdat align 2 {
  %2 = alloca ptr, align 8
  store ptr %0, ptr %2, align 8, !tbaa !4
  ret void
}

; Function Attrs: inlinehint mustprogress uwtable
define internal void @"_ZZN3gmx19FileIOXdrSerializerC1EP8t_fileioENK3$_0clEv"(ptr noundef nonnull align 1 dereferenceable(1) %0) #5 align 2 {
  %2 = alloca ptr, align 8
  store ptr %0, ptr %2, align 8, !tbaa !62
  call void @_ZN3gmx8internal13assertHandlerEPKcS2_S2_S2_i(ptr noundef @.str.30, ptr noundef @.str.31, ptr noundef @"__PRETTY_FUNCTION__._ZZN3gmx19FileIOXdrSerializerC1EP8t_fileioENK3$_0clEv", ptr noundef @.str.2, i32 noundef 800) #17
  unreachable
}

; Function Attrs: inlinehint mustprogress nounwind uwtable
define linkonce_odr void @_ZN3gmx11ISerializerC2Ev(ptr noundef nonnull align 8 dereferenceable(8) %0) unnamed_addr #1 comdat align 2 {
  %2 = alloca ptr, align 8
  store ptr %0, ptr %2, align 8, !tbaa !4
  %3 = load ptr, ptr %2, align 8
  store ptr getelementptr inbounds inrange(-16, 160) ({ [22 x ptr] }, ptr @_ZTVN3gmx11ISerializerE, i32 0, i32 0, i32 2), ptr %3, align 8, !tbaa !137
  ret void
}

; Function Attrs: mustprogress uwtable
define void @_ZN3gmx19FileIOXdrSerializerC2EP8t_fileio(ptr noundef nonnull align 8 dereferenceable(16) %0, ptr noundef %1) unnamed_addr #2 align 2 personality ptr @__gxx_personality_v0 {
  %3 = alloca ptr, align 8
  %4 = alloca ptr, align 8
  %5 = alloca %class.anon.8, align 1
  %6 = alloca ptr, align 8
  %7 = alloca i32, align 4
  store ptr %0, ptr %3, align 8, !tbaa !9
  store ptr %1, ptr %4, align 8, !tbaa !57
  %8 = load ptr, ptr %3, align 8
  call void @_ZN3gmx11ISerializerC2Ev(ptr noundef nonnull align 8 dereferenceable(8) %8) #15
  store ptr getelementptr inbounds inrange(-16, 160) ({ [22 x ptr] }, ptr @_ZTVN3gmx19FileIOXdrSerializerE, i32 0, i32 0, i32 2), ptr %8, align 8, !tbaa !137
  %9 = getelementptr inbounds nuw %"class.gmx::FileIOXdrSerializer", ptr %8, i32 0, i32 1
  %10 = load ptr, ptr %4, align 8, !tbaa !57
  store ptr %10, ptr %9, align 8, !tbaa !11
  %11 = load ptr, ptr %4, align 8, !tbaa !57
  %12 = icmp ne ptr %11, null
  call void @llvm.lifetime.start.p0(i64 1, ptr %5) #15
  br i1 %12, label %13, label %14

13:                                               ; preds = %2
  br label %16

14:                                               ; preds = %2
  invoke void @"_ZZN3gmx19FileIOXdrSerializerC1EP8t_fileioENK3$_0clEv"(ptr noundef nonnull align 1 dereferenceable(1) %5)
          to label %15 unwind label %17

15:                                               ; preds = %14
  br label %16

16:                                               ; preds = %15, %13
  call void @llvm.lifetime.end.p0(i64 1, ptr %5) #15
  ret void

17:                                               ; preds = %14
  %18 = landingpad { ptr, i32 }
          cleanup
  %19 = extractvalue { ptr, i32 } %18, 0
  store ptr %19, ptr %6, align 8
  %20 = extractvalue { ptr, i32 } %18, 1
  store i32 %20, ptr %7, align 4
  call void @llvm.lifetime.end.p0(i64 1, ptr %5) #15
  call void @_ZN3gmx11ISerializerD2Ev(ptr noundef nonnull align 8 dereferenceable(8) %8) #15
  br label %21

21:                                               ; preds = %17
  %22 = load ptr, ptr %6, align 8
  %23 = load i32, ptr %7, align 4
  %24 = insertvalue { ptr, i32 } poison, ptr %22, 0
  %25 = insertvalue { ptr, i32 } %24, i32 %23, 1
  resume { ptr, i32 } %25
}