; Function Attrs: mustprogress uwtable
define void @_ZN3gmx19FileIOXdrSerializerC2EP8t_fileio(ptr noundef nonnull writeonly align 8 captures(none) dereferenceable(16) initializes((0, 16)) %0, ptr noundef %1) unnamed_addr #3 align 2 personality ptr @__gxx_personality_v0 {
  store ptr getelementptr inbounds nuw inrange(-16, 160) (i8, ptr @_ZTVN3gmx19FileIOXdrSerializerE, i64 16), ptr %0, align 8, !tbaa !67
  %3 = getelementptr inbounds nuw i8, ptr %0, i64 8
  store ptr %1, ptr %3, align 8, !tbaa !4
  %.not = icmp eq ptr %1, null
  br i1 %.not, label %.noexc, label %4

.noexc:                                           ; preds = %2
  tail call void @_ZN3gmx8internal13assertHandlerEPKcS2_S2_S2_i(ptr noundef nonnull @.str.30, ptr noundef nonnull @.str.31, ptr noundef nonnull @"__PRETTY_FUNCTION__._ZZN3gmx19FileIOXdrSerializerC1EP8t_fileioENK3$_0clEv", ptr noundef nonnull @.str.2, i32 noundef 800) #17
  unreachable

4:                                                ; preds = %2
  ret void
}